; Function Attrs: nounwind sspstrong uwtable
define internal i64 @detach_process_watcher(ptr noundef %0) #1 {
  %2 = ptrtoint ptr %0 to i64
  %3 = trunc i64 %2 to i32
  %4 = tail call align 8 ptr @llvm.threadlocal.address.p0(ptr align 8 @ruby_current_ec)
  br label %.critedge

.critedge:                                        ; preds = %.critedge.backedge, %1
  %5 = tail call i64 @rb_process_status_wait(i32 noundef %3, i32 noundef 0)
  %6 = icmp eq i64 %5, 4
  br i1 %6, label %.critedge.backedge, label %7

7:                                                ; preds = %.critedge
  %8 = tail call ptr @rb_check_typeddata(i64 noundef %5, ptr noundef nonnull @rb_process_status_type) #27
  %9 = load i32, ptr %8, align 4, !tbaa !49
  %10 = icmp eq i32 %9, -1
  br i1 %10, label %rb_waitpid.exit.thread, label %rb_waitpid.exit

rb_waitpid.exit.thread:                           ; preds = %7
  %11 = getelementptr inbounds nuw i8, ptr %8, i64 8
  %12 = load i32, ptr %11, align 4, !tbaa !52
  %13 = tail call ptr @rb_errno_ptr() #27
  store i32 %12, ptr %13, align 4, !tbaa !60
  %.pre = load ptr, ptr %4, align 8, !tbaa !7
  %.phi.trans.insert = getelementptr i8, ptr %.pre, i64 48
  %.val.i.i1.pre = load ptr, ptr %.phi.trans.insert, align 8, !tbaa !12
  %.phi.trans.insert6 = getelementptr inbounds nuw i8, ptr %.val.i.i1.pre, i64 208
  %.pre7 = load i64, ptr %.phi.trans.insert6, align 8, !tbaa !24
  br label %.loopexit

rb_waitpid.exit:                                  ; preds = %7
  %14 = load ptr, ptr %4, align 8, !tbaa !7
  %15 = getelementptr i8, ptr %14, i64 48
  %.val.i.i = load ptr, ptr %15, align 8, !tbaa !12
  %16 = getelementptr inbounds nuw i8, ptr %.val.i.i, i64 208
  store i64 %5, ptr %16, align 8, !tbaa !24
  %17 = icmp eq i32 %9, 0
  br i1 %17, label %.critedge.backedge, label %.loopexit

.critedge.backedge:                               ; preds = %rb_waitpid.exit, %.critedge
  br label %.critedge, !llvm.loop !66

.loopexit:                                        ; preds = %rb_waitpid.exit, %rb_waitpid.exit.thread
  %18 = phi i64 [ %.pre7, %rb_waitpid.exit.thread ], [ %5, %rb_waitpid.exit ]
  ret i64 %18
}